target datalayout = "e-m:e-p270:32:32-p271:32:32-p272:64:64-i64:64-i128:128-f80:128-n8:16:32:64-S128"
target triple = "x86_64-pc-linux-gnu"

%struct.args_st = type { i32, i32, ptr }

@.str = private unnamed_addr constant [11 x i8] c"argv space\00", align 1
@.str.1 = private unnamed_addr constant [27 x i8] c"../openssl/apps/lib/apps.c\00", align 1
@.str.32 = private unnamed_addr constant [41 x i8] c"%s: Could not allocate %zu bytes for %s\0A\00", align 1

; Function Attrs: nounwind uwtable
define dso_local ptr @app_malloc(i64 noundef %0, ptr noundef %1) #0 {
  %3 = alloca i64, align 8
  %4 = alloca ptr, align 8
  %5 = alloca ptr, align 8
  store i64 %0, ptr %3, align 8, !tbaa !28
  store ptr %1, ptr %4, align 8, !tbaa !9
  call void @llvm.lifetime.start.p0(i64 8, ptr %5) #12
  %6 = load i64, ptr %3, align 8, !tbaa !28
  %7 = call noalias ptr @CRYPTO_malloc(i64 noundef %6, ptr noundef @.str.1, i32 noundef 685)
  store ptr %7, ptr %5, align 8, !tbaa !30
  %8 = load ptr, ptr %5, align 8, !tbaa !30
  %9 = icmp eq ptr %8, null
  br i1 %9, label %10, label %14

10:                                               ; preds = %2
  %11 = call ptr @opt_getprog()
  %12 = load i64, ptr %3, align 8, !tbaa !28
  %13 = load ptr, ptr %4, align 8, !tbaa !9
  call void (ptr, ...) @app_bail_out(ptr noundef @.str.32, ptr noundef %11, i64 noundef %12, ptr noundef %13)
  br label %14

14:                                               ; preds = %10, %2
  %15 = load ptr, ptr %5, align 8, !tbaa !30
  call void @llvm.lifetime.end.p0(i64 8, ptr %5) #12
  ret ptr %15
}

; Function Attrs: nounwind uwtable
define dso_local i32 @chopup_args(ptr noundef %0, ptr noundef %1) #0 {
  %3 = alloca i32, align 4
  %4 = alloca ptr, align 8
  %5 = alloca ptr, align 8
  %6 = alloca i32, align 4
  %7 = alloca i8, align 1
  %8 = alloca ptr, align 8
  %9 = alloca ptr, align 8
  %10 = alloca i32, align 4
  store ptr %0, ptr %4, align 8, !tbaa !4
  store ptr %1, ptr %5, align 8, !tbaa !9
  call void @llvm.lifetime.start.p0(i64 4, ptr %6) #12
  call void @llvm.lifetime.start.p0(i64 1, ptr %7) #12
  store i8 0, ptr %7, align 1, !tbaa !11
  call void @llvm.lifetime.start.p0(i64 8, ptr %8) #12
  store ptr null, ptr %8, align 8, !tbaa !9
  %11 = load ptr, ptr %4, align 8, !tbaa !4
  %12 = getelementptr inbounds nuw %struct.args_st, ptr %11, i32 0, i32 1
  store i32 0, ptr %12, align 4, !tbaa !12
  %13 = load ptr, ptr %4, align 8, !tbaa !4
  %14 = getelementptr inbounds nuw %struct.args_st, ptr %13, i32 0, i32 0
  %15 = load i32, ptr %14, align 8, !tbaa !16
  %16 = icmp eq i32 %15, 0
  br i1 %16, label %17, label %28

17:                                               ; preds = %2
  %18 = load ptr, ptr %4, align 8, !tbaa !4
  %19 = getelementptr inbounds nuw %struct.args_st, ptr %18, i32 0, i32 0
  store i32 20, ptr %19, align 8, !tbaa !16
  %20 = load ptr, ptr %4, align 8, !tbaa !4
  %21 = getelementptr inbounds nuw %struct.args_st, ptr %20, i32 0, i32 0
  %22 = load i32, ptr %21, align 8, !tbaa !16
  %23 = sext i32 %22 to i64
  %24 = mul i64 8, %23
  %25 = call ptr @app_malloc(i64 noundef %24, ptr noundef @.str)
  %26 = load ptr, ptr %4, align 8, !tbaa !4
  %27 = getelementptr inbounds nuw %struct.args_st, ptr %26, i32 0, i32 2
  store ptr %25, ptr %27, align 8, !tbaa !17
  br label %28

28:                                               ; preds = %17, %2
  %29 = load ptr, ptr %5, align 8, !tbaa !9
  store ptr %29, ptr %8, align 8, !tbaa !9
  br label %30

30:                                               ; preds = %176, %28
  br label %31

31:                                               ; preds = %50, %30
  %32 = load ptr, ptr %8, align 8, !tbaa !9
  %33 = load i8, ptr %32, align 1, !tbaa !11
  %34 = sext i8 %33 to i32
  %35 = icmp ne i32 %34, 0
  br i1 %35, label %36, label %48

36:                                               ; preds = %31
  %37 = call ptr @__ctype_b_loc() #13
  %38 = load ptr, ptr %37, align 8, !tbaa !18
  %39 = load ptr, ptr %8, align 8, !tbaa !9
  %40 = load i8, ptr %39, align 1, !tbaa !11
  %41 = zext i8 %40 to i32
  %42 = sext i32 %41 to i64
  %43 = getelementptr inbounds i16, ptr %38, i64 %42
  %44 = load i16, ptr %43, align 2, !tbaa !20
  %45 = zext i16 %44 to i32
  %46 = and i32 %45, 8192
  %47 = icmp ne i32 %46, 0
  br label %48

48:                                               ; preds = %36, %31
  %49 = phi i1 [ false, %31 ], [ %47, %36 ]
  br i1 %49, label %50, label %53

50:                                               ; preds = %48
  %51 = load ptr, ptr %8, align 8, !tbaa !9
  %52 = getelementptr inbounds nuw i8, ptr %51, i32 1
  store ptr %52, ptr %8, align 8, !tbaa !9
  br label %31, !llvm.loop !22

53:                                               ; preds = %48
  %54 = load ptr, ptr %8, align 8, !tbaa !9
  %55 = load i8, ptr %54, align 1, !tbaa !11
  %56 = sext i8 %55 to i32
  %57 = icmp eq i32 %56, 0
  br i1 %57, label %58, label %59

58:                                               ; preds = %53
  br label %177

59:                                               ; preds = %53
  %60 = load ptr, ptr %4, align 8, !tbaa !4
  %61 = getelementptr inbounds nuw %struct.args_st, ptr %60, i32 0, i32 1
  %62 = load i32, ptr %61, align 4, !tbaa !12
  %63 = load ptr, ptr %4, align 8, !tbaa !4
  %64 = getelementptr inbounds nuw %struct.args_st, ptr %63, i32 0, i32 0
  %65 = load i32, ptr %64, align 8, !tbaa !16
  %66 = icmp sge i32 %62, %65
  br i1 %66, label %67, label %91

67:                                               ; preds = %59
  call void @llvm.lifetime.start.p0(i64 8, ptr %9) #12
  %68 = load ptr, ptr %4, align 8, !tbaa !4
  %69 = getelementptr inbounds nuw %struct.args_st, ptr %68, i32 0, i32 0
  %70 = load i32, ptr %69, align 8, !tbaa !16
  %71 = add nsw i32 %70, 20
  store i32 %71, ptr %69, align 8, !tbaa !16
  %72 = load ptr, ptr %4, align 8, !tbaa !4
  %73 = getelementptr inbounds nuw %struct.args_st, ptr %72, i32 0, i32 2
  %74 = load ptr, ptr %73, align 8, !tbaa !17
  %75 = load ptr, ptr %4, align 8, !tbaa !4
  %76 = getelementptr inbounds nuw %struct.args_st, ptr %75, i32 0, i32 0
  %77 = load i32, ptr %76, align 8, !tbaa !16
  %78 = sext i32 %77 to i64
  %79 = mul i64 8, %78
  %80 = call ptr @CRYPTO_realloc(ptr noundef %74, i64 noundef %79, ptr noundef @.str.1, i32 noundef 109)
  store ptr %80, ptr %9, align 8, !tbaa !24
  %81 = load ptr, ptr %9, align 8, !tbaa !24
  %82 = icmp eq ptr %81, null
  br i1 %82, label %83, label %84

83:                                               ; preds = %67
  store i32 0, ptr %3, align 4
  store i32 1, ptr %10, align 4
  br label %88

84:                                               ; preds = %67
  %85 = load ptr, ptr %9, align 8, !tbaa !24
  %86 = load ptr, ptr %4, align 8, !tbaa !4
  %87 = getelementptr inbounds nuw %struct.args_st, ptr %86, i32 0, i32 2
  store ptr %85, ptr %87, align 8, !tbaa !17
  store i32 0, ptr %10, align 4
  br label %88

88:                                               ; preds = %84, %83
  call void @llvm.lifetime.end.p0(i64 8, ptr %9) #12
  %89 = load i32, ptr %10, align 4
  switch i32 %89, label %186 [
    i32 0, label %90
  ]

90:                                               ; preds = %88
  br label %91

91:                                               ; preds = %90, %59
  %92 = load ptr, ptr %8, align 8, !tbaa !9
  %93 = load i8, ptr %92, align 1, !tbaa !11
  %94 = sext i8 %93 to i32
  %95 = icmp eq i32 %94, 39
  br i1 %95, label %101, label %96

96:                                               ; preds = %91
  %97 = load ptr, ptr %8, align 8, !tbaa !9
  %98 = load i8, ptr %97, align 1, !tbaa !11
  %99 = sext i8 %98 to i32
  %100 = icmp eq i32 %99, 34
  br label %101

101:                                              ; preds = %96, %91
  %102 = phi i1 [ true, %91 ], [ %100, %96 ]
  %103 = zext i1 %102 to i32
  store i32 %103, ptr %6, align 4, !tbaa !25
  %104 = load i32, ptr %6, align 4, !tbaa !25
  %105 = icmp ne i32 %104, 0
  br i1 %105, label %106, label %110

106:                                              ; preds = %101
  %107 = load ptr, ptr %8, align 8, !tbaa !9
  %108 = getelementptr inbounds nuw i8, ptr %107, i32 1
  store ptr %108, ptr %8, align 8, !tbaa !9
  %109 = load i8, ptr %107, align 1, !tbaa !11
  store i8 %109, ptr %7, align 1, !tbaa !11
  br label %110

110:                                              ; preds = %106, %101
  %111 = load ptr, ptr %8, align 8, !tbaa !9
  %112 = load ptr, ptr %4, align 8, !tbaa !4
  %113 = getelementptr inbounds nuw %struct.args_st, ptr %112, i32 0, i32 2
  %114 = load ptr, ptr %113, align 8, !tbaa !17
  %115 = load ptr, ptr %4, align 8, !tbaa !4
  %116 = getelementptr inbounds nuw %struct.args_st, ptr %115, i32 0, i32 1
  %117 = load i32, ptr %116, align 4, !tbaa !12
  %118 = add nsw i32 %117, 1
  store i32 %118, ptr %116, align 4, !tbaa !12
  %119 = sext i32 %117 to i64
  %120 = getelementptr inbounds ptr, ptr %114, i64 %119
  store ptr %111, ptr %120, align 8, !tbaa !9
  %121 = load i32, ptr %6, align 4, !tbaa !25
  %122 = icmp ne i32 %121, 0
  br i1 %122, label %123, label %144

123:                                              ; preds = %110
  br label %124

124:                                              ; preds = %138, %123
  %125 = load ptr, ptr %8, align 8, !tbaa !9
  %126 = load i8, ptr %125, align 1, !tbaa !11
  %127 = sext i8 %126 to i32
  %128 = icmp ne i32 %127, 0
  br i1 %128, label %129, label %136

129:                                              ; preds = %124
  %130 = load ptr, ptr %8, align 8, !tbaa !9
  %131 = load i8, ptr %130, align 1, !tbaa !11
  %132 = sext i8 %131 to i32
  %133 = load i8, ptr %7, align 1, !tbaa !11
  %134 = sext i8 %133 to i32
  %135 = icmp ne i32 %132, %134
  br label %136

136:                                              ; preds = %129, %124
  %137 = phi i1 [ false, %124 ], [ %135, %129 ]
  br i1 %137, label %138, label %141

138:                                              ; preds = %136
  %139 = load ptr, ptr %8, align 8, !tbaa !9
  %140 = getelementptr inbounds nuw i8, ptr %139, i32 1
  store ptr %140, ptr %8, align 8, !tbaa !9
  br label %124, !llvm.loop !26

141:                                              ; preds = %136
  %142 = load ptr, ptr %8, align 8, !tbaa !9
  %143 = getelementptr inbounds nuw i8, ptr %142, i32 1
  store ptr %143, ptr %8, align 8, !tbaa !9
  store i8 0, ptr %142, align 1, !tbaa !11
  br label %176

144:                                              ; preds = %110
  br label %145

145:                                              ; preds = %165, %144
  %146 = load ptr, ptr %8, align 8, !tbaa !9
  %147 = load i8, ptr %146, align 1, !tbaa !11
  %148 = sext i8 %147 to i32
  %149 = icmp ne i32 %148, 0
  br i1 %149, label %150, label %163

150:                                              ; preds = %145
  %151 = call ptr @__ctype_b_loc() #13
  %152 = load ptr, ptr %151, align 8, !tbaa !18
  %153 = load ptr, ptr %8, align 8, !tbaa !9
  %154 = load i8, ptr %153, align 1, !tbaa !11
  %155 = zext i8 %154 to i32
  %156 = sext i32 %155 to i64
  %157 = getelementptr inbounds i16, ptr %152, i64 %156
  %158 = load i16, ptr %157, align 2, !tbaa !20
  %159 = zext i16 %158 to i32
  %160 = and i32 %159, 8192
  %161 = icmp ne i32 %160, 0
  %162 = xor i1 %161, true
  br label %163

163:                                              ; preds = %150, %145
  %164 = phi i1 [ false, %145 ], [ %162, %150 ]
  br i1 %164, label %165, label %168

165:                                              ; preds = %163
  %166 = load ptr, ptr %8, align 8, !tbaa !9
  %167 = getelementptr inbounds nuw i8, ptr %166, i32 1
  store ptr %167, ptr %8, align 8, !tbaa !9
  br label %145, !llvm.loop !27

168:                                              ; preds = %163
  %169 = load ptr, ptr %8, align 8, !tbaa !9
  %170 = load i8, ptr %169, align 1, !tbaa !11
  %171 = icmp ne i8 %170, 0
  br i1 %171, label %172, label %175

172:                                              ; preds = %168
  %173 = load ptr, ptr %8, align 8, !tbaa !9
  %174 = getelementptr inbounds nuw i8, ptr %173, i32 1
  store ptr %174, ptr %8, align 8, !tbaa !9
  store i8 0, ptr %173, align 1, !tbaa !11
  br label %175

175:                                              ; preds = %172, %168
  br label %176

176:                                              ; preds = %175, %141
  br label %30

177:                                              ; preds = %58
  %178 = load ptr, ptr %4, align 8, !tbaa !4
  %179 = getelementptr inbounds nuw %struct.args_st, ptr %178, i32 0, i32 2
  %180 = load ptr, ptr %179, align 8, !tbaa !17
  %181 = load ptr, ptr %4, align 8, !tbaa !4
  %182 = getelementptr inbounds nuw %struct.args_st, ptr %181, i32 0, i32 1
  %183 = load i32, ptr %182, align 4, !tbaa !12
  %184 = sext i32 %183 to i64
  %185 = getelementptr inbounds ptr, ptr %180, i64 %184
  store ptr null, ptr %185, align 8, !tbaa !9
  store i32 1, ptr %3, align 4
  store i32 1, ptr %10, align 4
  br label %186

186:                                              ; preds = %177, %88
  call void @llvm.lifetime.end.p0(i64 8, ptr %8) #12
  call void @llvm.lifetime.end.p0(i64 1, ptr %7) #12
  call void @llvm.lifetime.end.p0(i64 4, ptr %6) #12
  %187 = load i32, ptr %3, align 4
  ret i32 %187
}