; Function Attrs: nounwind uwtable
define dso_local range(i32 0, 2) i32 @chopup_args(ptr noundef captures(none) initializes((4, 8)) %0, ptr noundef %1) local_unnamed_addr #0 {
  %3 = getelementptr inbounds nuw i8, ptr %0, i64 4
  store i32 0, ptr %3, align 4, !tbaa !4
  %4 = load i32, ptr %0, align 8, !tbaa !11
  %5 = icmp eq i32 %4, 0
  br i1 %5, label %6, label %12

6:                                                ; preds = %2
  store i32 20, ptr %0, align 8, !tbaa !11
  %7 = tail call noalias ptr @CRYPTO_malloc(i64 noundef 160, ptr noundef nonnull @.str.1, i32 noundef 685) #27
  %8 = icmp eq ptr %7, null
  br i1 %8, label %9, label %app_malloc.exit

9:                                                ; preds = %6
  %10 = tail call ptr @opt_getprog() #27
  tail call void (ptr, ...) @app_bail_out(ptr noundef nonnull @.str.32, ptr noundef %10, i64 noundef 160, ptr noundef nonnull @.str)
  unreachable

app_malloc.exit:                                  ; preds = %6
  %11 = getelementptr inbounds nuw i8, ptr %0, i64 8
  store ptr %7, ptr %11, align 8, !tbaa !12
  br label %12

12:                                               ; preds = %app_malloc.exit, %2
  %13 = load i8, ptr %1, align 1, !tbaa !13
  %.not6773 = icmp eq i8 %13, 0
  br i1 %.not6773, label %._crit_edge, label %.lr.ph.lr.ph

.lr.ph.lr.ph:                                     ; preds = %12
  %14 = tail call ptr @__ctype_b_loc() #28
  %15 = getelementptr inbounds nuw i8, ptr %0, i64 8
  br label %.lr.ph

.lr.ph:                                           ; preds = %.lr.ph.lr.ph, %.critedge4.thread
  %16 = phi i8 [ %13, %.lr.ph.lr.ph ], [ %.pr, %.critedge4.thread ]
  %.04475 = phi ptr [ %1, %.lr.ph.lr.ph ], [ %.4.ph, %.critedge4.thread ]
  %.04874 = phi i8 [ 0, %.lr.ph.lr.ph ], [ %.149, %.critedge4.thread ]
  %17 = load ptr, ptr %14, align 8, !tbaa !14
  br label %18

18:                                               ; preds = %.lr.ph, %24
  %19 = phi i8 [ %16, %.lr.ph ], [ %26, %24 ]
  %.14568 = phi ptr [ %.04475, %.lr.ph ], [ %25, %24 ]
  %20 = zext i8 %19 to i64
  %21 = getelementptr inbounds nuw i16, ptr %17, i64 %20
  %22 = load i16, ptr %21, align 2, !tbaa !16
  %23 = and i16 %22, 8192
  %.not54 = icmp eq i16 %23, 0
  br i1 %.not54, label %.critedge, label %24

24:                                               ; preds = %18
  %25 = getelementptr inbounds nuw i8, ptr %.14568, i64 1
  %26 = load i8, ptr %25, align 1, !tbaa !13
  %.not = icmp eq i8 %26, 0
  br i1 %.not, label %._crit_edge, label %18, !llvm.loop !18

.critedge:                                        ; preds = %18
  %27 = load i32, ptr %3, align 4, !tbaa !4
  %28 = load i32, ptr %0, align 8, !tbaa !11
  %.not55 = icmp slt i32 %27, %28
  br i1 %.not55, label %36, label %29

29:                                               ; preds = %.critedge
  %30 = add nsw i32 %28, 20
  store i32 %30, ptr %0, align 8, !tbaa !11
  %31 = load ptr, ptr %15, align 8, !tbaa !12
  %32 = sext i32 %30 to i64
  %33 = shl nsw i64 %32, 3
  %34 = tail call ptr @CRYPTO_realloc(ptr noundef %31, i64 noundef %33, ptr noundef nonnull @.str.1, i32 noundef 109) #27
  %.not56 = icmp eq ptr %34, null
  br i1 %.not56, label %.critedge63, label %35

35:                                               ; preds = %29
  store ptr %34, ptr %15, align 8, !tbaa !12
  %.pre = load i8, ptr %.14568, align 1, !tbaa !13
  br label %36

36:                                               ; preds = %35, %.critedge
  %37 = phi i8 [ %.pre, %35 ], [ %19, %.critedge ]
  switch i8 %37, label %40 [
    i8 39, label %38
    i8 34, label %38
  ]

38:                                               ; preds = %36, %36
  %39 = getelementptr inbounds nuw i8, ptr %.14568, i64 1
  br label %40

40:                                               ; preds = %36, %38
  %.149 = phi i8 [ %37, %38 ], [ %.04874, %36 ]
  %.246 = phi ptr [ %39, %38 ], [ %.14568, %36 ]
  %41 = load ptr, ptr %15, align 8, !tbaa !12
  %42 = load i32, ptr %3, align 4, !tbaa !4
  %43 = add nsw i32 %42, 1
  store i32 %43, ptr %3, align 4, !tbaa !4
  %44 = sext i32 %42 to i64
  %45 = getelementptr inbounds ptr, ptr %41, i64 %44
  store ptr %.246, ptr %45, align 8, !tbaa !20
  switch i8 %37, label %.preheader [
    i8 39, label %.preheader64.preheader
    i8 34, label %.preheader64.preheader
  ]

.preheader64.preheader:                           ; preds = %40, %40
  br label %.preheader64

.preheader:                                       ; preds = %40
  %46 = load i8, ptr %.246, align 1, !tbaa !13
  %.not5770 = icmp eq i8 %46, 0
  br i1 %.not5770, label %._crit_edge, label %.lr.ph72

.lr.ph72:                                         ; preds = %.preheader
  %47 = load ptr, ptr %14, align 8, !tbaa !14
  br label %50

.preheader64:                                     ; preds = %.preheader64.preheader, %.preheader64
  %.347 = phi ptr [ %49, %.preheader64 ], [ %.246, %.preheader64.preheader ]
  %48 = load i8, ptr %.347, align 1, !tbaa !13
  %.not60 = icmp eq i8 %48, 0
  %.not61 = icmp eq i8 %48, %.149
  %or.cond = select i1 %.not60, i1 true, i1 %.not61
  %49 = getelementptr inbounds nuw i8, ptr %.347, i64 1
  br i1 %or.cond, label %.critedge4.thread, label %.preheader64, !llvm.loop !22

50:                                               ; preds = %.lr.ph72, %57
  %51 = phi i8 [ %46, %.lr.ph72 ], [ %58, %57 ]
  %.571 = phi ptr [ %.246, %.lr.ph72 ], [ %56, %57 ]
  %52 = zext i8 %51 to i64
  %53 = getelementptr inbounds nuw i16, ptr %47, i64 %52
  %54 = load i16, ptr %53, align 2, !tbaa !16
  %55 = and i16 %54, 8192
  %.not58 = icmp eq i16 %55, 0
  %56 = getelementptr inbounds nuw i8, ptr %.571, i64 1
  br i1 %.not58, label %57, label %.critedge4.thread

57:                                               ; preds = %50
  %58 = load i8, ptr %56, align 1, !tbaa !13
  %.not57 = icmp eq i8 %58, 0
  br i1 %.not57, label %._crit_edge, label %50, !llvm.loop !23

.critedge4.thread:                                ; preds = %.preheader64, %50
  %.571.lcssa.sink = phi ptr [ %.571, %50 ], [ %.347, %.preheader64 ]
  %.4.ph = phi ptr [ %56, %50 ], [ %49, %.preheader64 ]
  store i8 0, ptr %.571.lcssa.sink, align 1, !tbaa !13
  %.pr = load i8, ptr %.4.ph, align 1, !tbaa !13
  %.not67 = icmp eq i8 %.pr, 0
  br i1 %.not67, label %._crit_edge, label %.lr.ph

._crit_edge:                                      ; preds = %.preheader, %.critedge4.thread, %24, %57, %12
  %59 = getelementptr inbounds nuw i8, ptr %0, i64 8
  %60 = load ptr, ptr %59, align 8, !tbaa !12
  %61 = load i32, ptr %3, align 4, !tbaa !4
  %62 = sext i32 %61 to i64
  %63 = getelementptr inbounds ptr, ptr %60, i64 %62
  store ptr null, ptr %63, align 8, !tbaa !20
  br label %.critedge63

.critedge63:                                      ; preds = %29, %._crit_edge
  %.3 = phi i32 [ 1, %._crit_edge ], [ 0, %29 ]
  ret i32 %.3
}